	.file	"AvrLib.c"
__SP_H__ = 0x3e
__SP_L__ = 0x3d
__SREG__ = 0x3f
__tmp_reg__ = 0
__zero_reg__ = 1
	.text
.Ltext0:
	.cfi_sections	.debug_frame
	.section	.text.EnterAtomic,"ax",@progbits
.global	EnterAtomic
	.type	EnterAtomic, @function
EnterAtomic:
.LFB3:
	.file 1 "C:\\Users\\rolfl\\Documents\\GitHub\\Avr\\AvrLib\\Build\\AvrLib.c"
	.loc 1 145 0
	.cfi_startproc
/* prologue: function */
/* frame size = 0 */
/* stack size = 0 */
.L__stack_usage = 0
	.loc 1 146 0
/* #APP */
 ;  146 "C:\Users\rolfl\Documents\GitHub\Avr\AvrLib\Build\AvrLib.c" 1
	cli
 ;  0 "" 2
	.loc 1 147 0
/* #NOAPP */
	lds r24,_enterAtomicNesting
	subi r24,lo8(-(1))
	sts _enterAtomicNesting,r24
	ret
	.cfi_endproc
.LFE3:
	.size	EnterAtomic, .-EnterAtomic
	.section	.text.LeaveAtomic,"ax",@progbits
.global	LeaveAtomic
	.type	LeaveAtomic, @function
LeaveAtomic:
.LFB4:
	.loc 1 151 0
	.cfi_startproc
/* prologue: function */
/* frame size = 0 */
/* stack size = 0 */
.L__stack_usage = 0
	.loc 1 152 0
	lds r24,_enterAtomicNesting
	subi r24,lo8(-(-1))
	sts _enterAtomicNesting,r24
	.loc 1 153 0
	cpse r24,__zero_reg__
	rjmp .L2
	.loc 1 155 0
/* #APP */
 ;  155 "C:\Users\rolfl\Documents\GitHub\Avr\AvrLib\Build\AvrLib.c" 1
	sei
 ;  0 "" 2
/* #NOAPP */
.L2:
	ret
	.cfi_endproc
.LFE4:
	.size	LeaveAtomic, .-LeaveAtomic
	.section	.text.SetState,"ax",@progbits
.global	SetState
	.type	SetState, @function
SetState:
.LFB5:
	.loc 1 160 0
	.cfi_startproc
.LVL0:
	push r16
.LCFI0:
	.cfi_def_cfa_offset 3
	.cfi_offset 16, -2
	push r17
.LCFI1:
	.cfi_def_cfa_offset 4
	.cfi_offset 17, -3
	push r28
.LCFI2:
	.cfi_def_cfa_offset 5
	.cfi_offset 28, -4
	push r29
.LCFI3:
	.cfi_def_cfa_offset 6
	.cfi_offset 29, -5
/* prologue: function */
/* frame size = 0 */
/* stack size = 4 */
.L__stack_usage = 4
	movw r28,r24
	movw r16,r22
	.loc 1 161 0
	call EnterAtomic
.LVL1:
	.loc 1 162 0
	std Y+4,r17
	std Y+3,r16
	.loc 1 163 0
	call LeaveAtomic
.LVL2:
/* epilogue start */
	.loc 1 164 0
	pop r29
	pop r28
.LVL3:
	pop r17
	pop r16
.LVL4:
	ret
	.cfi_endproc
.LFE5:
	.size	SetState, .-SetState
	.section	.text.RegisterFsm,"ax",@progbits
.global	RegisterFsm
	.type	RegisterFsm, @function
RegisterFsm:
.LFB6:
	.loc 1 176 0
	.cfi_startproc
.LVL5:
/* prologue: function */
/* frame size = 0 */
/* stack size = 0 */
.L__stack_usage = 0
	.loc 1 179 0
	lds r30,_anchor
	lds r31,_anchor+1
.LVL6:
	.loc 1 180 0
	ldi r18,hi8(_anchor)
	cpi r30,lo8(_anchor)
	cpc r31,r18
	brne .L7
	rjmp .L6
.LVL7:
.L8:
	.loc 1 183 0
	movw r30,r18
.LVL8:
.L7:
	ld r18,Z
	ldd r19,Z+1
.LVL9:
	.loc 1 180 0
	ldi r20,hi8(_anchor)
	cpi r18,lo8(_anchor)
	cpc r19,r20
	brne .L8
.LVL10:
.L6:
	.loc 1 185 0
	std Z+1,r25
	st Z,r24
	.loc 1 186 0
	ldi r18,lo8(_anchor)
	ldi r19,hi8(_anchor)
	movw r30,r24
	std Z+1,r19
	st Z,r18
	ret
	.cfi_endproc
.LFE6:
	.size	RegisterFsm, .-RegisterFsm
	.section	.text.SendMessage,"ax",@progbits
.global	SendMessage
	.type	SendMessage, @function
SendMessage:
.LFB8:
	.loc 1 216 0
	.cfi_startproc
.LVL11:
	push r11
.LCFI4:
	.cfi_def_cfa_offset 3
	.cfi_offset 11, -2
	push r12
.LCFI5:
	.cfi_def_cfa_offset 4
	.cfi_offset 12, -3
	push r13
.LCFI6:
	.cfi_def_cfa_offset 5
	.cfi_offset 13, -4
	push r14
.LCFI7:
	.cfi_def_cfa_offset 6
	.cfi_offset 14, -5
	push r15
.LCFI8:
	.cfi_def_cfa_offset 7
	.cfi_offset 15, -6
	push r16
.LCFI9:
	.cfi_def_cfa_offset 8
	.cfi_offset 16, -7
	push r17
.LCFI10:
	.cfi_def_cfa_offset 9
	.cfi_offset 17, -8
	push r28
.LCFI11:
	.cfi_def_cfa_offset 10
	.cfi_offset 28, -9
	push r29
.LCFI12:
	.cfi_def_cfa_offset 11
	.cfi_offset 29, -10
/* prologue: function */
/* frame size = 0 */
/* stack size = 9 */
.L__stack_usage = 9
	.loc 1 217 0
	mov r28,r24
	ldi r29,0
	movw r30,r28
	subi r30,lo8(-(_capacity))
	sbci r31,hi8(-(_capacity))
	ld r16,Z
	ldi r17,0
	movw r30,r28
	subi r30,lo8(-(_nrOfEntries))
	sbci r31,hi8(-(_nrOfEntries))
	ld r15,Z
	mov r30,r15
	mov __tmp_reg__,r15
	lsl r0
	sbc r31,r31
	cp r30,r16
	cpc r31,r17
	brge .L9
	mov r13,r18
	mov r12,r20
	mov r11,r22
.LBB2:
	.loc 1 219 0
	call EnterAtomic
.LVL12:
	.loc 1 220 0
	movw r18,r28
	subi r18,lo8(-(_qIn))
	sbci r19,hi8(-(_qIn))
	movw r26,r18
	ld r30,X
.LVL13:
	.loc 1 221 0
	ldi r31,0
	movw r24,r30
	adiw r24,1
	movw r22,r16
	call __divmodhi4
	movw r26,r18
	st X,r24
.LVL14:
	.loc 1 222 0
	movw r26,r28
	lsl r26
	rol r27
	subi r26,lo8(-(_prioQueue))
	sbci r27,hi8(-(_prioQueue))
.LVL15:
	.loc 1 223 0
	lsl r30
	rol r31
	lsl r30
	rol r31
.LVL16:
	ld r24,X+
	ld r25,X
	add r30,r24
	adc r31,r25
	std Z+1,r11
	.loc 1 224 0
	st Z,r28
	.loc 1 225 0
	std Z+2,r12
	.loc 1 226 0
	std Z+3,r13
	.loc 1 227 0
	subi r28,lo8(-(_nrOfEntries))
	sbci r29,hi8(-(_nrOfEntries))
.LVL17:
	inc r15
	st Y,r15
.LVL18:
	.loc 1 229 0
	call LeaveAtomic
.LVL19:
.L9:
/* epilogue start */
.LBE2:
	.loc 1 231 0
	pop r29
	pop r28
	pop r17
	pop r16
	pop r15
	pop r14
	pop r13
	pop r12
	pop r11
	ret
	.cfi_endproc
.LFE8:
	.size	SendMessage, .-SendMessage
	.section	.text.ProcessMessage,"ax",@progbits
.global	ProcessMessage
	.type	ProcessMessage, @function
ProcessMessage:
.LFB2:
	.loc 1 131 0
	.cfi_startproc
.LVL20:
	push r28
.LCFI13:
	.cfi_def_cfa_offset 3
	.cfi_offset 28, -2
	push r29
.LCFI14:
	.cfi_def_cfa_offset 4
	.cfi_offset 29, -3
/* prologue: function */
/* frame size = 0 */
/* stack size = 2 */
.L__stack_usage = 2
	.loc 1 132 0
	lds r25,_avrPoolOut
	lds r18,_avrPoolIn
	cp r25,r18
	breq .L11
	mov r28,r24
.LBB3:
	.loc 1 134 0
	mov r30,r25
	ldi r31,0
	subi r30,lo8(-(_avrMsgIndex))
	sbci r31,hi8(-(_avrMsgIndex))
	ld r29,Z
.LVL21:
	.loc 1 135 0
	subi r25,lo8(-(1))
	andi r25,lo8(7)
	sts _avrPoolOut,r25
	.loc 1 136 0
	mov r18,r29
	ldi r19,0
	movw r24,r18
.LVL22:
	lsl r24
	rol r25
	lsl r18
	rol r19
	lsl r18
	rol r19
	lsl r18
	rol r19
	add r24,r18
	adc r25,r19
	movw r30,r24
	subi r30,lo8(-(_avrMessagePool))
	sbci r31,hi8(-(_avrMessagePool))
	st Z,r28
	.loc 1 137 0
	std Z+1,r20
	.loc 1 138 0
	ldi r21,0
	subi r24,lo8(-(_avrMessagePool+2))
	sbci r25,hi8(-(_avrMessagePool+2))
	call memcpy
.LVL23:
	.loc 1 139 0
	mov r22,r28
	ori r22,lo8(-128)
	ldi r18,0
	mov r20,r29
	ldi r24,lo8(3)
	call SendMessage
.LVL24:
.L11:
/* epilogue start */
.LBE3:
	.loc 1 141 0
	pop r29
	pop r28
	ret
	.cfi_endproc
.LFE2:
	.size	ProcessMessage, .-ProcessMessage
	.section	.text.HandleMessage,"ax",@progbits
.global	HandleMessage
	.type	HandleMessage, @function
HandleMessage:
.LFB1:
	.loc 1 100 0
	.cfi_startproc
.LVL25:
/* prologue: function */
/* frame size = 0 */
/* stack size = 0 */
.L__stack_usage = 0
	.loc 1 107 0
	lds r25,msgType.1855
	cpse r25,__zero_reg__
	rjmp .L14
	.loc 1 109 0
	sts msgType.1855,r24
	.loc 1 110 0
	sts msgLen.1856,__zero_reg__
	ret
.L14:
	.loc 1 112 0
	lds r20,msgLen.1856
	cpse r20,__zero_reg__
	rjmp .L16
	.loc 1 114 0
	subi r24,lo8(-(-2))
.LVL26:
	sts msgLen.1856,r24
	.loc 1 116 0
	sts bufferIndex.1854,__zero_reg__
	ret
.LVL27:
.L16:
	.loc 1 118 0
	lds r30,bufferIndex.1854
	cp r30,r20
	brsh .L13
	.loc 1 120 0
	ldi r18,lo8(1)
	add r18,r30
	sts bufferIndex.1854,r18
	ldi r31,0
	subi r30,lo8(-(msgBuffer.1853))
	sbci r31,hi8(-(msgBuffer.1853))
	st Z,r24
	.loc 1 121 0
	cpse r20,r18
	rjmp .L13
	.loc 1 123 0
	ldi r22,lo8(msgBuffer.1853)
	ldi r23,hi8(msgBuffer.1853)
	mov r24,r25
.LVL28:
	call ProcessMessage
.LVL29:
	.loc 1 124 0
	sts msgType.1855,__zero_reg__
	.loc 1 125 0
	sts bufferIndex.1854,__zero_reg__
.L13:
	ret
	.cfi_endproc
.LFE1:
	.size	HandleMessage, .-HandleMessage
	.section	.text.GetMessage,"ax",@progbits
.global	GetMessage
	.type	GetMessage, @function
GetMessage:
.LFB9:
	.loc 1 235 0
	.cfi_startproc
.LVL30:
	push r16
.LCFI15:
	.cfi_def_cfa_offset 3
	.cfi_offset 16, -2
	push r17
.LCFI16:
	.cfi_def_cfa_offset 4
	.cfi_offset 17, -3
	push r28
.LCFI17:
	.cfi_def_cfa_offset 5
	.cfi_offset 28, -4
	push r29
.LCFI18:
	.cfi_def_cfa_offset 6
	.cfi_offset 29, -5
/* prologue: function */
/* frame size = 0 */
/* stack size = 4 */
.L__stack_usage = 4
	movw r18,r24
.LVL31:
	.loc 1 239 0
	lds r25,_nrOfEntries
	cp __zero_reg__,r25
	brlt .L21
.LVL32:
	lds r25,_nrOfEntries+1
	cp __zero_reg__,r25
	brlt .L22
.LVL33:
	lds r25,_nrOfEntries+2
	cp __zero_reg__,r25
	brlt .L23
.LVL34:
	lds r25,_nrOfEntries+3
	cp __zero_reg__,r25
	brge .L24
	ldi r16,lo8(3)
	ldi r17,0
	rjmp .L18
.LVL35:
.L22:
	ldi r16,lo8(1)
	ldi r17,0
	rjmp .L18
.LVL36:
.L23:
	ldi r16,lo8(2)
	ldi r17,0
	rjmp .L18
.LVL37:
.L21:
	ldi r16,0
	ldi r17,0
.LVL38:
.L18:
	movw r28,r18
.LBB4:
	.loc 1 241 0
	call EnterAtomic
.LVL39:
	.loc 1 243 0
	movw r18,r16
	subi r18,lo8(-(_qOut))
	sbci r19,hi8(-(_qOut))
	movw r30,r18
	ld r20,Z
.LVL40:
	.loc 1 242 0
	movw r30,r16
	lsl r30
	rol r31
	subi r30,lo8(-(_prioQueue))
	sbci r31,hi8(-(_prioQueue))
.LVL41:
	.loc 1 244 0
	mov r24,r20
	ldi r25,0
	ld __tmp_reg__,Z+
	ld r31,Z
	mov r30,__tmp_reg__
.LVL42:
	ldi r21,lo8(4)
	mul r20,r21
	add r30,r0
	adc r31,r1
	clr __zero_reg__
.LVL43:
	ld r20,Z
	ldd r21,Z+1
	ldd r22,Z+2
	ldd r23,Z+3
.LVL44:
	st Y,r20
	std Y+1,r21
	std Y+2,r22
	std Y+3,r23
	.loc 1 245 0
	movw r30,r16
	subi r30,lo8(-(_nrOfEntries))
	sbci r31,hi8(-(_nrOfEntries))
	ld r20,Z
	subi r20,lo8(-(-1))
	st Z,r20
	.loc 1 246 0
	adiw r24,1
.LVL45:
	movw r30,r16
	subi r30,lo8(-(_capacity))
	sbci r31,hi8(-(_capacity))
	ld r22,Z
	ldi r23,0
	call __divmodhi4
	movw r30,r18
	st Z,r24
	.loc 1 247 0
	call LeaveAtomic
.LVL46:
	.loc 1 248 0
	ldi r24,lo8(1)
	rjmp .L20
.LVL47:
.L24:
.LBE4:
	.loc 1 251 0
	ldi r24,0
.LVL48:
.L20:
/* epilogue start */
	.loc 1 252 0
	pop r29
	pop r28
	pop r17
	pop r16
	ret
	.cfi_endproc
.LFE9:
	.size	GetMessage, .-GetMessage
	.section	.text.DispatchEvent,"ax",@progbits
.global	DispatchEvent
	.type	DispatchEvent, @function
DispatchEvent:
.LFB7:
	.loc 1 190 0
	.cfi_startproc
	push r15
.LCFI19:
	.cfi_def_cfa_offset 3
	.cfi_offset 15, -2
	push r16
.LCFI20:
	.cfi_def_cfa_offset 4
	.cfi_offset 16, -3
	push r17
.LCFI21:
	.cfi_def_cfa_offset 5
	.cfi_offset 17, -4
	push r28
.LCFI22:
	.cfi_def_cfa_offset 6
	.cfi_offset 28, -5
	push r29
.LCFI23:
	.cfi_def_cfa_offset 7
	.cfi_offset 29, -6
	rcall .
	rcall .
.LCFI24:
	.cfi_def_cfa_offset 11
	in r28,__SP_L__
	in r29,__SP_H__
.LCFI25:
	.cfi_def_cfa_register 28
/* prologue: function */
/* frame size = 4 */
/* stack size = 9 */
.L__stack_usage = 9
	.loc 1 192 0
	movw r24,r28
	adiw r24,1
	call GetMessage
.LVL49:
	tst r24
	breq .L26
.LBB5:
	.loc 1 194 0
	lds r16,_anchor
	lds r17,_anchor+1
.LVL50:
	.loc 1 195 0
	ldi r24,lo8(1)
	ldi r25,0
	ldd r0,Y+1
	rjmp 2f
	1:
	lsl r24
	rol r25
	2:
	dec r0
	brpl 1b
	mov r15,r24
.LVL51:
	.loc 1 196 0
	ldi r24,hi8(_anchor)
	cpi r16,lo8(_anchor)
	cpc r17,r24
	breq .L27
.L31:
	.loc 1 198 0
	movw r26,r16
	adiw r26,2
	ld r24,X
	sbiw r26,2
	and r24,r15
	breq .L28
	.loc 1 200 0
	adiw r26,3
	ld r30,X+
	ld r31,X
	sbiw r26,3+1
	movw r24,r28
	adiw r24,1
	icall
.LVL52:
.L28:
	.loc 1 202 0
	movw r30,r16
	ld r16,Z
	ldd r17,Z+1
.LVL53:
	.loc 1 196 0
	ldi r31,hi8(_anchor)
	cpi r16,lo8(_anchor)
	cpc r17,r31
	brne .L31
.L27:
	.loc 1 204 0
	ldd r24,Y+2
	tst r24
	brge .L30
	.loc 1 206 0
	lds r24,_avrPoolIn
	mov r30,r24
	ldi r31,0
	subi r30,lo8(-(_avrMsgIndex))
	sbci r31,hi8(-(_avrMsgIndex))
	ldd r25,Y+3
	st Z,r25
	.loc 1 207 0
	subi r24,lo8(-(1))
	andi r24,lo8(7)
	sts _avrPoolIn,r24
	.loc 1 209 0
	ldi r24,lo8(1)
	rjmp .L26
.L30:
	ldi r24,lo8(1)
.LVL54:
.L26:
/* epilogue start */
.LBE5:
	.loc 1 212 0
	pop __tmp_reg__
	pop __tmp_reg__
	pop __tmp_reg__
	pop __tmp_reg__
	pop r29
	pop r28
	pop r17
	pop r16
	pop r15
	ret
	.cfi_endproc
.LFE7:
	.size	DispatchEvent, .-DispatchEvent
	.section	.text.Usart_Init,"ax",@progbits
.global	Usart_Init
	.type	Usart_Init, @function
Usart_Init:
.LFB10:
	.loc 1 257 0
	.cfi_startproc
/* prologue: function */
/* frame size = 0 */
/* stack size = 0 */
.L__stack_usage = 0
	.loc 1 259 0
	out 0x20,__zero_reg__
	.loc 1 261 0
	ldi r24,lo8(5)
	out 0x9,r24
	.loc 1 262 0
	ldi r24,lo8(-122)
	out 0x20,r24
	.loc 1 263 0
	ldi r24,lo8(-104)
	out 0xa,r24
	.loc 1 264 0
/* #APP */
 ;  264 "C:\Users\rolfl\Documents\GitHub\Avr\AvrLib\Build\AvrLib.c" 1
	sei
 ;  0 "" 2
/* #NOAPP */
	ret
	.cfi_endproc
.LFE10:
	.size	Usart_Init, .-Usart_Init
	.section	.text.AllowUartRx,"ax",@progbits
.global	AllowUartRx
	.type	AllowUartRx, @function
AllowUartRx:
.LFB11:
	.loc 1 268 0
	.cfi_startproc
/* prologue: function */
/* frame size = 0 */
/* stack size = 0 */
.L__stack_usage = 0
	.loc 1 269 0
	sbi 0xa,7
	ret
	.cfi_endproc
.LFE11:
	.size	AllowUartRx, .-AllowUartRx
	.section	.text.DisallowUartRx,"ax",@progbits
.global	DisallowUartRx
	.type	DisallowUartRx, @function
DisallowUartRx:
.LFB12:
	.loc 1 273 0
	.cfi_startproc
/* prologue: function */
/* frame size = 0 */
/* stack size = 0 */
.L__stack_usage = 0
	.loc 1 274 0
	cbi 0xa,7
	ret
	.cfi_endproc
.LFE12:
	.size	DisallowUartRx, .-DisallowUartRx
	.section	.text.Usart_PutChar,"ax",@progbits
.global	Usart_PutChar
	.type	Usart_PutChar, @function
Usart_PutChar:
.LFB19:
	.loc 1 323 0
	.cfi_startproc
.LVL55:
/* prologue: function */
/* frame size = 0 */
/* stack size = 0 */
.L__stack_usage = 0
	.loc 1 324 0
	out 0xc,r24
.L37:
	.loc 1 325 0 discriminator 1
	sbis 0xb,5
	rjmp .L37
/* epilogue start */
	.loc 1 326 0
	ret
	.cfi_endproc
.LFE19:
	.size	Usart_PutChar, .-Usart_PutChar
	.section	.text.InitializeStateEventFramework,"ax",@progbits
.global	InitializeStateEventFramework
	.type	InitializeStateEventFramework, @function
InitializeStateEventFramework:
.LFB0:
	.loc 1 79 0
	.cfi_startproc
/* prologue: function */
/* frame size = 0 */
/* stack size = 0 */
.L__stack_usage = 0
	.loc 1 81 0
	ldi r24,lo8(-54)
	call Usart_PutChar
.LVL56:
	.loc 1 82 0
	ldi r24,lo8(-2)
	call Usart_PutChar
.LVL57:
.L42:
	.loc 1 86 0
	call DispatchEvent
.LVL58:
	.loc 1 88 0
	lds r25,USART_rxBufferOut
	lds r24,USART_rxBufferIn
	cp r25,r24
	breq .L42
.L43:
.LBB6:
	.loc 1 90 0
	call EnterAtomic
.LVL59:
	.loc 1 91 0
	lds r30,USART_rxBufferOut
	ldi r24,lo8(1)
	add r24,r30
	sts USART_rxBufferOut,r24
	ldi r31,0
	subi r30,lo8(-(USART_rxBuffer))
	sbci r31,hi8(-(USART_rxBuffer))
	ld r28,Z
.LVL60:
	.loc 1 92 0
	lds r24,USART_rxBufferOut
	andi r24,lo8(31)
	sts USART_rxBufferOut,r24
	.loc 1 93 0
	call LeaveAtomic
.LVL61:
	.loc 1 94 0
	mov r24,r28
	call HandleMessage
.LVL62:
.LBE6:
	.loc 1 88 0
	lds r25,USART_rxBufferOut
	lds r24,USART_rxBufferIn
	cpse r25,r24
	rjmp .L43
	rjmp .L42
	.cfi_endproc
.LFE0:
	.size	InitializeStateEventFramework, .-InitializeStateEventFramework
	.section	.text.Usart_PutShort,"ax",@progbits
.global	Usart_PutShort
	.type	Usart_PutShort, @function
Usart_PutShort:
.LFB20:
	.loc 1 329 0
	.cfi_startproc
.LVL63:
/* prologue: function */
/* frame size = 0 */
/* stack size = 0 */
.L__stack_usage = 0
	.loc 1 330 0
	out 0xc,r25
.L46:
	.loc 1 331 0 discriminator 1
	sbis 0xb,5
	rjmp .L46
	.loc 1 332 0
	out 0xc,r24
.L47:
	.loc 1 333 0 discriminator 1
	sbis 0xb,5
	rjmp .L47
/* epilogue start */
	.loc 1 334 0
	ret
	.cfi_endproc
.LFE20:
	.size	Usart_PutShort, .-Usart_PutShort
	.section	.text.Usart_TraceN,"ax",@progbits
.global	Usart_TraceN
	.type	Usart_TraceN, @function
Usart_TraceN:
.LFB13:
	.loc 1 281 0
	.cfi_startproc
.LVL64:
	push r14
.LCFI26:
	.cfi_def_cfa_offset 3
	.cfi_offset 14, -2
	push r15
.LCFI27:
	.cfi_def_cfa_offset 4
	.cfi_offset 15, -3
	push r16
.LCFI28:
	.cfi_def_cfa_offset 5
	.cfi_offset 16, -4
	push r17
.LCFI29:
	.cfi_def_cfa_offset 6
	.cfi_offset 17, -5
	push r28
.LCFI30:
	.cfi_def_cfa_offset 7
	.cfi_offset 28, -6
	push r29
.LCFI31:
	.cfi_def_cfa_offset 8
	.cfi_offset 29, -7
/* prologue: function */
/* frame size = 0 */
/* stack size = 6 */
.L__stack_usage = 6
	movw r28,r24
	mov r14,r22
	mov r15,r23
	mov r17,r20
	.loc 1 282 0
	call EnterAtomic
.LVL65:
	.loc 1 283 0
	ldi r24,lo8(-91)
	call Usart_PutChar
.LVL66:
	.loc 1 284 0
	mov r24,r17
	ori r24,lo8(-88)
	call Usart_PutChar
.LVL67:
	.loc 1 285 0
	movw r24,r28
	call Usart_PutShort
.LVL68:
	.loc 1 286 0
	ldi r28,lo8(-1)
.LVL69:
	add r28,r17
.LVL70:
	cp __zero_reg__,r17
	brge .L51
	mov r16,r14
	mov r17,r15
.LVL71:
.L52:
	.loc 1 288 0
	movw r30,r16
	ld r24,Z+
.LVL72:
	movw r16,r30
	call Usart_PutChar
.LVL73:
.LVL74:
	subi r28,1
	brcc .L52
.L51:
	.loc 1 290 0
	call LeaveAtomic
.LVL75:
/* epilogue start */
	.loc 1 291 0
	pop r29
	pop r28
.LVL76:
	pop r17
	pop r16
	pop r15
	pop r14
	ret
	.cfi_endproc
.LFE13:
	.size	Usart_TraceN, .-Usart_TraceN
	.section	.text.Usart_Trace0,"ax",@progbits
.global	Usart_Trace0
	.type	Usart_Trace0, @function
Usart_Trace0:
.LFB14:
	.loc 1 294 0
	.cfi_startproc
.LVL77:
/* prologue: function */
/* frame size = 0 */
/* stack size = 0 */
.L__stack_usage = 0
	.loc 1 295 0
	ldi r20,0
	ldi r22,0
	ldi r23,0
	call Usart_TraceN
.LVL78:
	ret
	.cfi_endproc
.LFE14:
	.size	Usart_Trace0, .-Usart_Trace0
	.section	.text.Usart_Trace1,"ax",@progbits
.global	Usart_Trace1
	.type	Usart_Trace1, @function
Usart_Trace1:
.LFB15:
	.loc 1 300 0
	.cfi_startproc
.LVL79:
	push r28
.LCFI32:
	.cfi_def_cfa_offset 3
	.cfi_offset 28, -2
	push r29
.LCFI33:
	.cfi_def_cfa_offset 4
	.cfi_offset 29, -3
	push __zero_reg__
.LCFI34:
	.cfi_def_cfa_offset 5
	in r28,__SP_L__
	in r29,__SP_H__
.LCFI35:
	.cfi_def_cfa_register 28
/* prologue: function */
/* frame size = 1 */
/* stack size = 3 */
.L__stack_usage = 3
	std Y+1,r22
	.loc 1 301 0
	ldi r20,lo8(1)
	movw r22,r28
.LVL80:
	subi r22,-1
	sbci r23,-1
	call Usart_TraceN
.LVL81:
/* epilogue start */
	.loc 1 302 0
	pop __tmp_reg__
	pop r29
	pop r28
.LVL82:
	ret
	.cfi_endproc
.LFE15:
	.size	Usart_Trace1, .-Usart_Trace1
	.section	.text.Usart_Trace2,"ax",@progbits
.global	Usart_Trace2
	.type	Usart_Trace2, @function
Usart_Trace2:
.LFB16:
	.loc 1 305 0
	.cfi_startproc
.LVL83:
	push r28
.LCFI36:
	.cfi_def_cfa_offset 3
	.cfi_offset 28, -2
	push r29
.LCFI37:
	.cfi_def_cfa_offset 4
	.cfi_offset 29, -3
	rcall .
.LCFI38:
	.cfi_def_cfa_offset 6
	in r28,__SP_L__
	in r29,__SP_H__
.LCFI39:
	.cfi_def_cfa_register 28
/* prologue: function */
/* frame size = 2 */
/* stack size = 4 */
.L__stack_usage = 4
	.loc 1 306 0
	std Y+1,r22
	std Y+2,r20
	.loc 1 307 0
	ldi r20,lo8(2)
.LVL84:
	movw r22,r28
.LVL85:
	subi r22,-1
	sbci r23,-1
	call Usart_TraceN
.LVL86:
/* epilogue start */
	.loc 1 308 0
	pop __tmp_reg__
	pop __tmp_reg__
	pop r29
	pop r28
	ret
	.cfi_endproc
.LFE16:
	.size	Usart_Trace2, .-Usart_Trace2
	.section	.text.Usart_Trace3,"ax",@progbits
.global	Usart_Trace3
	.type	Usart_Trace3, @function
Usart_Trace3:
.LFB17:
	.loc 1 311 0
	.cfi_startproc
.LVL87:
	push r28
.LCFI40:
	.cfi_def_cfa_offset 3
	.cfi_offset 28, -2
	push r29
.LCFI41:
	.cfi_def_cfa_offset 4
	.cfi_offset 29, -3
	rcall .
	push __zero_reg__
.LCFI42:
	.cfi_def_cfa_offset 7
	in r28,__SP_L__
	in r29,__SP_H__
.LCFI43:
	.cfi_def_cfa_register 28
/* prologue: function */
/* frame size = 3 */
/* stack size = 5 */
.L__stack_usage = 5
	.loc 1 312 0
	std Y+1,r22
	std Y+2,r20
	std Y+3,r18
	.loc 1 313 0
	ldi r20,lo8(3)
.LVL88:
	movw r22,r28
.LVL89:
	subi r22,-1
	sbci r23,-1
	call Usart_TraceN
.LVL90:
/* epilogue start */
	.loc 1 314 0
	pop __tmp_reg__
	pop __tmp_reg__
	pop __tmp_reg__
	pop r29
	pop r28
	ret
	.cfi_endproc
.LFE17:
	.size	Usart_Trace3, .-Usart_Trace3
	.section	.text.Usart_Trace4,"ax",@progbits
.global	Usart_Trace4
	.type	Usart_Trace4, @function
Usart_Trace4:
.LFB18:
	.loc 1 317 0
	.cfi_startproc
.LVL91:
	push r16
.LCFI44:
	.cfi_def_cfa_offset 3
	.cfi_offset 16, -2
	push r28
.LCFI45:
	.cfi_def_cfa_offset 4
	.cfi_offset 28, -3
	push r29
.LCFI46:
	.cfi_def_cfa_offset 5
	.cfi_offset 29, -4
	rcall .
	rcall .
.LCFI47:
	.cfi_def_cfa_offset 9
	in r28,__SP_L__
	in r29,__SP_H__
.LCFI48:
	.cfi_def_cfa_register 28
/* prologue: function */
/* frame size = 4 */
/* stack size = 7 */
.L__stack_usage = 7
	.loc 1 318 0
	std Y+1,r22
	std Y+2,r20
	std Y+3,r18
	std Y+4,r16
	.loc 1 319 0
	ldi r20,lo8(4)
.LVL92:
	movw r22,r28
.LVL93:
	subi r22,-1
	sbci r23,-1
	call Usart_TraceN
.LVL94:
/* epilogue start */
	.loc 1 320 0
	pop __tmp_reg__
	pop __tmp_reg__
	pop __tmp_reg__
	pop __tmp_reg__
	pop r29
	pop r28
	pop r16
.LVL95:
	ret
	.cfi_endproc
.LFE18:
	.size	Usart_Trace4, .-Usart_Trace4
	.section	.text.__vector_13,"ax",@progbits
.global	__vector_13
	.type	__vector_13, @function
__vector_13:
.LFB21:
	.loc 1 338 0
	.cfi_startproc
	push r1
.LCFI49:
	.cfi_def_cfa_offset 3
	.cfi_offset 1, -2
	push r0
.LCFI50:
	.cfi_def_cfa_offset 4
	.cfi_offset 0, -3
	in r0,__SREG__
	push r0
	clr __zero_reg__
	push r18
.LCFI51:
	.cfi_def_cfa_offset 5
	.cfi_offset 18, -4
	push r24
.LCFI52:
	.cfi_def_cfa_offset 6
	.cfi_offset 24, -5
	push r25
.LCFI53:
	.cfi_def_cfa_offset 7
	.cfi_offset 25, -6
	push r30
.LCFI54:
	.cfi_def_cfa_offset 8
	.cfi_offset 30, -7
	push r31
.LCFI55:
	.cfi_def_cfa_offset 9
	.cfi_offset 31, -8
/* prologue: Signal */
/* frame size = 0 */
/* stack size = 8 */
.L__stack_usage = 8
	.loc 1 340 0
	rjmp .L62
.L63:
.LBB7:
	.loc 1 342 0
	in r18,0xc
.LVL96:
	.loc 1 343 0
	lds r24,USART_rxBufferIn
	ldi r25,0
	adiw r24,1
	andi r24,31
	andi r25,128
	tst r25
	brge .L61
	sbiw r24,1
	ori r24,224
	ori r25,255
	adiw r24,1
.L61:
.LVL97:
	.loc 1 344 0
	lds r25,USART_rxBufferOut
	cp r24,r25
	breq .L62
	.loc 1 346 0
	lds r30,USART_rxBufferIn
	ldi r31,0
	subi r30,lo8(-(USART_rxBuffer))
	sbci r31,hi8(-(USART_rxBuffer))
	st Z,r18
	.loc 1 347 0
	sts USART_rxBufferIn,r24
.LVL98:
.L62:
.LBE7:
	.loc 1 340 0
	sbic 0xb,7
	rjmp .L63
/* epilogue start */
	.loc 1 350 0
	pop r31
	pop r30
	pop r25
	pop r24
	pop r18
	pop r0
	out __SREG__,r0
	pop r0
	pop r1
	reti
	.cfi_endproc
.LFE21:
	.size	__vector_13, .-__vector_13
	.section	.bss.msgBuffer.1853,"aw",@nobits
	.type	msgBuffer.1853, @object
	.size	msgBuffer.1853, 14
msgBuffer.1853:
	.zero	14
	.section	.bss.bufferIndex.1854,"aw",@nobits
	.type	bufferIndex.1854, @object
	.size	bufferIndex.1854, 1
bufferIndex.1854:
	.zero	1
	.section	.bss.msgLen.1856,"aw",@nobits
	.type	msgLen.1856, @object
	.size	msgLen.1856, 1
msgLen.1856:
	.zero	1
	.section	.bss.msgType.1855,"aw",@nobits
	.type	msgType.1855, @object
	.size	msgType.1855, 1
msgType.1855:
	.zero	1
	.section	.rodata._capacity,"a",@progbits
	.type	_capacity, @object
	.size	_capacity, 4
_capacity:
	.byte	4
	.byte	8
	.byte	8
	.byte	16
	.section	.bss._nrOfEntries,"aw",@nobits
	.type	_nrOfEntries, @object
	.size	_nrOfEntries, 4
_nrOfEntries:
	.zero	4
	.section	.bss._qOut,"aw",@nobits
	.type	_qOut, @object
	.size	_qOut, 4
_qOut:
	.zero	4
	.section	.bss._qIn,"aw",@nobits
	.type	_qIn, @object
	.size	_qIn, 4
_qIn:
	.zero	4
	.section	.rodata._prioQueue,"a",@progbits
	.type	_prioQueue, @object
	.size	_prioQueue, 8
_prioQueue:
	.word	_highPrioQueue
	.word	_midPrioQueue
	.word	_lowPrioQueue
	.word	_veryLowPrioQueue
	.section	.bss._veryLowPrioQueue,"aw",@nobits
	.type	_veryLowPrioQueue, @object
	.size	_veryLowPrioQueue, 64
_veryLowPrioQueue:
	.zero	64
	.section	.bss._lowPrioQueue,"aw",@nobits
	.type	_lowPrioQueue, @object
	.size	_lowPrioQueue, 32
_lowPrioQueue:
	.zero	32
	.section	.bss._midPrioQueue,"aw",@nobits
	.type	_midPrioQueue, @object
	.size	_midPrioQueue, 32
_midPrioQueue:
	.zero	32
	.section	.bss._highPrioQueue,"aw",@nobits
	.type	_highPrioQueue, @object
	.size	_highPrioQueue, 16
_highPrioQueue:
	.zero	16
	.section	.data._anchor,"aw",@progbits
	.type	_anchor, @object
	.size	_anchor, 5
_anchor:
	.word	_anchor
	.byte	0
	.word	0
	.section	.data._avrPoolOut,"aw",@progbits
	.type	_avrPoolOut, @object
	.size	_avrPoolOut, 1
_avrPoolOut:
	.byte	7
	.section	.data._avrPoolIn,"aw",@progbits
	.type	_avrPoolIn, @object
	.size	_avrPoolIn, 1
_avrPoolIn:
	.byte	7
	.section	.data._avrMsgIndex,"aw",@progbits
	.type	_avrMsgIndex, @object
	.size	_avrMsgIndex, 8
_avrMsgIndex:
	.byte	0
	.byte	1
	.byte	2
	.byte	3
	.byte	4
	.byte	5
	.byte	6
	.byte	7
	.section	.bss._avrMessagePool,"aw",@nobits
	.type	_avrMessagePool, @object
	.size	_avrMessagePool, 80
_avrMessagePool:
	.zero	80
	.section	.bss.USART_rxBufferOut,"aw",@nobits
	.type	USART_rxBufferOut, @object
	.size	USART_rxBufferOut, 1
USART_rxBufferOut:
	.zero	1
	.section	.bss.USART_rxBufferIn,"aw",@nobits
	.type	USART_rxBufferIn, @object
	.size	USART_rxBufferIn, 1
USART_rxBufferIn:
	.zero	1
	.comm	USART_rxBuffer,32,1
	.section	.bss._enterAtomicNesting,"aw",@nobits
	.type	_enterAtomicNesting, @object
	.size	_enterAtomicNesting, 1
_enterAtomicNesting:
	.zero	1
	.text
.Letext0:
	.file 2 "c:\\users\\rolfl\\documents\\github\\avr\\toolchain\\avr8-gnu-toolchain-win32_x86\\avr\\include\\stdint.h"
	.file 3 "C:\\Users\\rolfl\\Documents\\GitHub\\Avr\\ToolChain\\AvrLib\\include/AvrLib.h"